target datalayout = "e-m:e-p270:32:32-p271:32:32-p272:64:64-i64:64-i128:128-f80:128-n8:16:32:64-S128"
target triple = "x86_64-pc-linux-gnu"

%struct.hashipv6 = type { [16 x i8], i8, [46 x i8], [256 x i8] }

@.str.14 = private unnamed_addr constant [7 x i8] c"%s\09%s\0A\00", align 1

; Function Attrs: null_pointer_is_valid sspstrong uwtable
define internal void @ipv6_hash_table_print_resolved(ptr noundef %0, ptr noundef %1, ptr noundef %2) #0 {
  %4 = alloca ptr, align 8
  %5 = alloca ptr, align 8
  %6 = alloca ptr, align 8
  %7 = alloca ptr, align 8
  store ptr %0, ptr %4, align 8
  store ptr %1, ptr %5, align 8
  store ptr %2, ptr %6, align 8
  call void @llvm.lifetime.start.p0(i64 8, ptr %7) #5
  %8 = load ptr, ptr %5, align 8
  store ptr %8, ptr %7, align 8
  %9 = load ptr, ptr %7, align 8
  %10 = getelementptr inbounds nuw %struct.hashipv6, ptr %9, i32 0, i32 1
  %11 = load i8, ptr %10, align 1
  %12 = zext i8 %11 to i32
  %13 = and i32 %12, 2
  %14 = icmp ne i32 %13, 0
  br i1 %14, label %15, label %23

15:                                               ; preds = %3
  %16 = load ptr, ptr %7, align 8
  %17 = getelementptr inbounds nuw %struct.hashipv6, ptr %16, i32 0, i32 2
  %18 = getelementptr inbounds [46 x i8], ptr %17, i64 0, i64 0
  %19 = load ptr, ptr %7, align 8
  %20 = getelementptr inbounds nuw %struct.hashipv6, ptr %19, i32 0, i32 3
  %21 = getelementptr inbounds [256 x i8], ptr %20, i64 0, i64 0
  %22 = call i32 (i32, ptr, ...) @__printf_chk(i32 noundef 2, ptr noundef @.str.14, ptr noundef %18, ptr noundef %21)
  br label %23

23:                                               ; preds = %15, %3
  call void @llvm.lifetime.end.p0(i64 8, ptr %7) #5
  ret void
}