; Function Attrs: null_pointer_is_valid sspstrong uwtable
define internal void @ipv6_hash_table_print_resolved(ptr readnone captures(none) %0, ptr noundef %1, ptr readnone captures(none) %2) #0 {
  %4 = getelementptr inbounds nuw i8, ptr %1, i64 16
  %5 = load i8, ptr %4, align 1
  %6 = and i8 %5, 2
  %.not = icmp eq i8 %6, 0
  br i1 %.not, label %11, label %7

7:                                                ; preds = %3
  %8 = getelementptr inbounds nuw i8, ptr %1, i64 17
  %9 = getelementptr inbounds nuw i8, ptr %1, i64 63
  %10 = tail call i32 (i32, ptr, ...) @__printf_chk(i32 noundef 2, ptr noundef nonnull @.str.14, ptr noundef nonnull %8, ptr noundef nonnull %9)
  br label %11

11:                                               ; preds = %7, %3
  ret void
}